target datalayout = "e-m:e-p270:32:32-p271:32:32-p272:64:64-i64:64-i128:128-f80:128-n8:16:32:64-S128"
target triple = "x86_64-pc-linux-gnu"

%struct.sat_solver_t = type { i32, i32, i32, i32, %struct.Sat_Mem_t_, i32, i32, ptr, ptr, i32, i32, i32, i32, i32, i64, i64, i64, ptr, ptr, i32, i32, %struct.veci_t, ptr, i32, ptr, ptr, ptr, ptr, ptr, ptr, ptr, ptr, %struct.veci_t, %struct.veci_t, %struct.veci_t, %struct.veci_t, ptr, %struct.veci_t, i32, i32, i32, double, double, i32, i32, i32, %struct.stats_t, i32, i32, i32, i32, i32, i64, i64, i64, %struct.veci_t, ptr, i32, i32, i32, %struct.veci_t, %struct.veci_t, i32, i32, i32, ptr, ptr, i32, ptr, i32, i32, %struct.veci_t, %struct.veci_t, %struct.veci_t, ptr, ptr, i32, ptr }
%struct.Sat_Mem_t_ = type { [2 x i32], [2 x i32], [2 x i32], [2 x i32], i32, i32, i32, i32, ptr }
%struct.stats_t = type { i32, i32, i32, i64, i64, i64, i64, i64, i64, i64 }
%struct.veci_t = type { i32, i32, ptr }

@.str.8 = private unnamed_addr constant [24 x i8] c"starts        : %16.0f\0A\00", align 1
@.str.9 = private unnamed_addr constant [24 x i8] c"conflicts     : %16.0f\0A\00", align 1
@.str.10 = private unnamed_addr constant [24 x i8] c"decisions     : %16.0f\0A\00", align 1
@.str.11 = private unnamed_addr constant [24 x i8] c"propagations  : %16.0f\0A\00", align 1

; Function Attrs: inlinehint nounwind uwtable
define internal double @Sat_Wrd2Dbl(i64 noundef %0) #4 {
  %2 = alloca i64, align 8
  store i64 %0, ptr %2, align 8, !tbaa !61
  %3 = load i64, ptr %2, align 8, !tbaa !61
  %4 = and i64 %3, 1073741823
  %5 = trunc i64 %4 to i32
  %6 = uitofp i32 %5 to double
  %7 = load i64, ptr %2, align 8, !tbaa !61
  %8 = lshr i64 %7, 30
  %9 = trunc i64 %8 to i32
  %10 = uitofp i32 %9 to double
  %11 = call double @llvm.fmuladd.f64(double 0x41D0000000000000, double %10, double %6)
  ret double %11
}

; Function Attrs: nounwind uwtable
define void @Sat_SolverPrintStats(ptr noundef %0, ptr noundef %1) #0 {
  %3 = alloca ptr, align 8
  %4 = alloca ptr, align 8
  store ptr %0, ptr %3, align 8, !tbaa !34
  store ptr %1, ptr %4, align 8, !tbaa !3
  %5 = load ptr, ptr %4, align 8, !tbaa !3
  %6 = getelementptr inbounds nuw %struct.sat_solver_t, ptr %5, i32 0, i32 46
  %7 = getelementptr inbounds nuw %struct.stats_t, ptr %6, i32 0, i32 0
  %8 = load i32, ptr %7, align 8, !tbaa !57
  %9 = zext i32 %8 to i64
  %10 = call double @Sat_Wrd2Dbl(i64 noundef %9)
  %11 = call i32 (ptr, ...) @printf(ptr noundef @.str.8, double noundef %10)
  %12 = load ptr, ptr %4, align 8, !tbaa !3
  %13 = getelementptr inbounds nuw %struct.sat_solver_t, ptr %12, i32 0, i32 46
  %14 = getelementptr inbounds nuw %struct.stats_t, ptr %13, i32 0, i32 6
  %15 = load i64, ptr %14, align 8, !tbaa !58
  %16 = call double @Sat_Wrd2Dbl(i64 noundef %15)
  %17 = call i32 (ptr, ...) @printf(ptr noundef @.str.9, double noundef %16)
  %18 = load ptr, ptr %4, align 8, !tbaa !3
  %19 = getelementptr inbounds nuw %struct.sat_solver_t, ptr %18, i32 0, i32 46
  %20 = getelementptr inbounds nuw %struct.stats_t, ptr %19, i32 0, i32 3
  %21 = load i64, ptr %20, align 8, !tbaa !59
  %22 = call double @Sat_Wrd2Dbl(i64 noundef %21)
  %23 = call i32 (ptr, ...) @printf(ptr noundef @.str.10, double noundef %22)
  %24 = load ptr, ptr %4, align 8, !tbaa !3
  %25 = getelementptr inbounds nuw %struct.sat_solver_t, ptr %24, i32 0, i32 46
  %26 = getelementptr inbounds nuw %struct.stats_t, ptr %25, i32 0, i32 4
  %27 = load i64, ptr %26, align 8, !tbaa !60
  %28 = call double @Sat_Wrd2Dbl(i64 noundef %27)
  %29 = call i32 (ptr, ...) @printf(ptr noundef @.str.11, double noundef %28)
  ret void
}