; Function Attrs: nofree nounwind uwtable
define void @Sat_SolverPrintStats(ptr noundef readnone captures(none) %0, ptr noundef readonly captures(none) %1) local_unnamed_addr #0 {
  %3 = getelementptr inbounds nuw i8, ptr %1, i64 400
  %4 = load i32, ptr %3, align 8, !tbaa !49
  %5 = and i32 %4, 1073741823
  %6 = uitofp nneg i32 %5 to double
  %7 = lshr i32 %4, 30
  %8 = uitofp nneg i32 %7 to double
  %9 = tail call double @llvm.fmuladd.f64(double %8, double 0x41D0000000000000, double %6)
  %10 = tail call i32 (ptr, ...) @printf(ptr noundef nonnull dereferenceable(1) @.str.8, double noundef %9)
  %11 = getelementptr inbounds nuw i8, ptr %1, i64 440
  %12 = load i64, ptr %11, align 8, !tbaa !50
  %13 = trunc i64 %12 to i32
  %14 = and i32 %13, 1073741823
  %15 = uitofp nneg i32 %14 to double
  %16 = lshr i64 %12, 30
  %17 = trunc i64 %16 to i32
  %18 = uitofp i32 %17 to double
  %19 = tail call double @llvm.fmuladd.f64(double %18, double 0x41D0000000000000, double %15)
  %20 = tail call i32 (ptr, ...) @printf(ptr noundef nonnull dereferenceable(1) @.str.9, double noundef %19)
  %21 = getelementptr inbounds nuw i8, ptr %1, i64 416
  %22 = load i64, ptr %21, align 8, !tbaa !51
  %23 = trunc i64 %22 to i32
  %24 = and i32 %23, 1073741823
  %25 = uitofp nneg i32 %24 to double
  %26 = lshr i64 %22, 30
  %27 = trunc i64 %26 to i32
  %28 = uitofp i32 %27 to double
  %29 = tail call double @llvm.fmuladd.f64(double %28, double 0x41D0000000000000, double %25)
  %30 = tail call i32 (ptr, ...) @printf(ptr noundef nonnull dereferenceable(1) @.str.10, double noundef %29)
  %31 = getelementptr inbounds nuw i8, ptr %1, i64 424
  %32 = load i64, ptr %31, align 8, !tbaa !52
  %33 = trunc i64 %32 to i32
  %34 = and i32 %33, 1073741823
  %35 = uitofp nneg i32 %34 to double
  %36 = lshr i64 %32, 30
  %37 = trunc i64 %36 to i32
  %38 = uitofp i32 %37 to double
  %39 = tail call double @llvm.fmuladd.f64(double %38, double 0x41D0000000000000, double %35)
  %40 = tail call i32 (ptr, ...) @printf(ptr noundef nonnull dereferenceable(1) @.str.11, double noundef %39)
  ret void
}